; Function Attrs: mustprogress nofree norecurse nosync nounwind willreturn memory(argmem: read) uwtable
define noundef zeroext i1 @_ZN4base29FilePersistentMemoryAllocator16IsFileAcceptableERKNS_16MemoryMappedFileEb(ptr noundef nonnull readonly align 8 captures(none) dereferenceable(72) %0, i1 noundef zeroext %1) local_unnamed_addr #11 align 2 {
  %3 = getelementptr inbounds nuw i8, ptr %0, i64 56
  %4 = load ptr, ptr %3, align 8, !tbaa !77
  %5 = getelementptr inbounds nuw i8, ptr %0, i64 64
  %6 = load i64, ptr %5, align 8, !tbaa !85
  %.not.i = icmp eq ptr %4, null
  br i1 %.not.i, label %_ZN4base25PersistentMemoryAllocator18IsMemoryAcceptableEPKvmmb.exit, label %7

7:                                                ; preds = %2
  %8 = ptrtoint ptr %4 to i64
  %9 = and i64 %8, 7
  %10 = icmp eq i64 %9, 0
  %11 = add i64 %6, -56
  %12 = icmp ult i64 %11, 1073741769
  %or.cond3.i = and i1 %10, %12
  br i1 %or.cond3.i, label %13, label %_ZN4base25PersistentMemoryAllocator18IsMemoryAcceptableEPKvmmb.exit

13:                                               ; preds = %7
  %14 = and i64 %6, 7
  %15 = icmp eq i64 %14, 0
  %brmerge.i = or i1 %1, %15
  br label %_ZN4base25PersistentMemoryAllocator18IsMemoryAcceptableEPKvmmb.exit

_ZN4base25PersistentMemoryAllocator18IsMemoryAcceptableEPKvmmb.exit: ; preds = %13, %2, %7
  %16 = phi i1 [ false, %7 ], [ false, %2 ], [ %brmerge.i, %13 ]
  ret i1 %16
}